target datalayout = "e-m:e-p270:32:32-p271:32:32-p272:64:64-i64:64-i128:128-f80:128-n8:16:32:64-S128"
target triple = "x86_64-pc-linux-gnu"

%class.LIR_Opr = type { i64 }
%class.LIR_Assembler = type { ptr, ptr, ptr, ptr, ptr, ptr, i32, i32, %class.Label }
%class.Label = type <{ i32, [4 x i32], i32, ptr, i8, [7 x i8] }>
%class.LIR_Op = type { ptr, %class.LIR_Opr, i16, i16, ptr, i32, i32, ptr }
%class.LIR_OpCall = type { %class.LIR_Op, ptr, ptr }

; Function Attrs: mustprogress nounwind uwtable
define linkonce_odr hidden noundef ptr @_ZNK6LIR_Op4infoEv(ptr noundef nonnull align 8 dereferenceable(48) %0) #1 comdat align 2 {
  %2 = alloca ptr, align 8
  store ptr %0, ptr %2, align 8
  %3 = load ptr, ptr %2, align 8
  %4 = getelementptr inbounds %class.LIR_Op, ptr %3, i32 0, i32 4
  %5 = load ptr, ptr %4, align 8
  ret ptr %5
}

; Function Attrs: mustprogress nounwind uwtable
define linkonce_odr hidden noundef ptr @_ZNK10LIR_OpCall4addrEv(ptr noundef nonnull align 8 dereferenceable(64) %0) #1 comdat align 2 {
  %2 = alloca ptr, align 8
  store ptr %0, ptr %2, align 8
  %3 = load ptr, ptr %2, align 8
  %4 = getelementptr inbounds %class.LIR_OpCall, ptr %3, i32 0, i32 1
  %5 = load ptr, ptr %4, align 8
  ret ptr %5
}

; Function Attrs: mustprogress nounwind uwtable
define hidden void @_ZN13LIR_Assembler7ic_callEP14LIR_OpJavaCall(ptr noundef nonnull align 8 dereferenceable(96) %0, ptr noundef %1) #1 align 2 {
  %3 = alloca ptr, align 8
  %4 = alloca ptr, align 8
  store ptr %0, ptr %3, align 8
  store ptr %1, ptr %4, align 8
  %5 = load ptr, ptr %3, align 8
  %6 = getelementptr inbounds %class.LIR_Assembler, ptr %5, i32 0, i32 0
  %7 = load ptr, ptr %6, align 8
  %8 = load ptr, ptr %4, align 8
  %9 = call noundef ptr @_ZNK10LIR_OpCall4addrEv(ptr noundef nonnull align 8 dereferenceable(64) %8)
  call void @_ZN14MacroAssembler7ic_callEPhi(ptr noundef nonnull align 8 dereferenceable(40) %7, ptr noundef %9, i32 noundef 0)
  %10 = call noundef i32 @_ZNK13LIR_Assembler11code_offsetEv(ptr noundef nonnull align 8 dereferenceable(96) %5)
  %11 = load ptr, ptr %4, align 8
  %12 = call noundef ptr @_ZNK6LIR_Op4infoEv(ptr noundef nonnull align 8 dereferenceable(48) %11)
  call void @_ZN13LIR_Assembler13add_call_infoEiP12CodeEmitInfo(ptr noundef nonnull align 8 dereferenceable(96) %5, i32 noundef %10, ptr noundef %12)
  %13 = getelementptr inbounds %class.LIR_Assembler, ptr %5, i32 0, i32 0
  %14 = load ptr, ptr %13, align 8
  call void @_ZN14MacroAssembler13post_call_nopEv(ptr noundef nonnull align 8 dereferenceable(40) %14)
  ret void
}