; Function Attrs: mustprogress nounwind uwtable
define hidden void @_ZN13LIR_Assembler7ic_callEP14LIR_OpJavaCall(ptr noundef nonnull align 8 dereferenceable(96) %0, ptr nocapture noundef readonly %1) local_unnamed_addr #0 align 2 {
  %3 = load ptr, ptr %0, align 8
  %4 = getelementptr inbounds i8, ptr %1, i64 48
  %5 = load ptr, ptr %4, align 8
  tail call void @_ZN14MacroAssembler7ic_callEPhi(ptr noundef nonnull align 8 dereferenceable(40) %3, ptr noundef %5, i32 noundef 0) #15
  %6 = tail call noundef i32 @_ZNK13LIR_Assembler11code_offsetEv(ptr noundef nonnull align 8 dereferenceable(96) %0) #15
  %7 = getelementptr inbounds i8, ptr %1, i64 24
  %8 = load ptr, ptr %7, align 8
  tail call void @_ZN13LIR_Assembler13add_call_infoEiP12CodeEmitInfo(ptr noundef nonnull align 8 dereferenceable(96) %0, i32 noundef %6, ptr noundef %8) #15
  %9 = load ptr, ptr %0, align 8
  tail call void @_ZN14MacroAssembler13post_call_nopEv(ptr noundef nonnull align 8 dereferenceable(40) %9) #15
  ret void
}